; Function Attrs: nounwind uwtable
define internal fastcc range(i32 0, 2) i32 @asn1_expect_obj(ptr noundef %0, ptr noundef nonnull captures(none) %1, ptr noundef nonnull captures(none) %2, i8 noundef zeroext range(i8 2, 7) %3, i32 noundef %4, ptr noundef readonly captures(none) %5) unnamed_addr #0 {
  %7 = alloca %struct.cli_asn1, align 8
  call void @llvm.lifetime.start.p0(i64 24, ptr nonnull %7) #11
  %8 = load ptr, ptr %1, align 8, !tbaa !61
  %9 = call fastcc i32 @asn1_get_obj(ptr noundef %0, ptr noundef %8, ptr noundef nonnull %2, ptr noundef nonnull %7)
  %.not.i = icmp eq i32 %9, 0
  br i1 %.not.i, label %10, label %asn1_expect_objtype.exit.thread

10:                                               ; preds = %6
  %11 = load i8, ptr %7, align 8, !tbaa !15
  %.not13.i = icmp eq i8 %11, %3
  br i1 %.not13.i, label %asn1_expect_objtype.exit, label %12

12:                                               ; preds = %10
  %13 = zext nneg i8 %3 to i32
  %14 = zext i8 %11 to i32
  tail call void (ptr, ...) @cli_dbgmsg(ptr noundef nonnull @.str.275, i32 noundef %13, i32 noundef %14) #11
  br label %asn1_expect_objtype.exit.thread

asn1_expect_objtype.exit:                         ; preds = %10
  %15 = getelementptr inbounds nuw i8, ptr %7, i64 4
  %16 = load i32, ptr %15, align 4, !tbaa !16
  %.not17 = icmp eq i32 %16, %4
  br i1 %.not17, label %18, label %17

17:                                               ; preds = %asn1_expect_objtype.exit
  tail call void (ptr, ...) @cli_dbgmsg(ptr noundef nonnull @.str.276, i32 noundef %4, i32 noundef %16) #11
  br label %asn1_expect_objtype.exit.thread

18:                                               ; preds = %asn1_expect_objtype.exit
  %.not18 = icmp eq i32 %4, 0
  br i1 %.not18, label %35, label %19

19:                                               ; preds = %18
  %20 = getelementptr inbounds nuw i8, ptr %7, i64 8
  %21 = load ptr, ptr %20, align 8, !tbaa !18
  %22 = zext i32 %4 to i64
  %23 = getelementptr inbounds nuw i8, ptr %0, i64 104
  %24 = load ptr, ptr %23, align 8, !tbaa !19
  %25 = getelementptr i8, ptr %0, i64 16
  %.val.i = load ptr, ptr %25, align 8, !tbaa !20
  %26 = getelementptr i8, ptr %0, i64 72
  %.val4.i = load i64, ptr %26, align 8, !tbaa !21
  %27 = ptrtoint ptr %21 to i64
  %28 = ptrtoint ptr %.val.i to i64
  %29 = add i64 %.val4.i, %28
  %30 = sub i64 %27, %29
  %31 = tail call ptr %24(ptr noundef %0, i64 noundef %30, i64 noundef range(i64 0, 4294967296) %22, i32 noundef 0) #11
  %.not19 = icmp eq ptr %31, null
  br i1 %.not19, label %32, label %33

32:                                               ; preds = %19
  tail call void (ptr, ...) @cli_dbgmsg(ptr noundef nonnull @.str.277) #11
  br label %asn1_expect_objtype.exit.thread

33:                                               ; preds = %19
  %bcmp = tail call i32 @bcmp(ptr %21, ptr %5, i64 %22)
  %.not20 = icmp eq i32 %bcmp, 0
  br i1 %.not20, label %35, label %34

34:                                               ; preds = %33
  tail call void (ptr, ...) @cli_dbgmsg(ptr noundef nonnull @.str.278) #11
  br label %asn1_expect_objtype.exit.thread

35:                                               ; preds = %33, %18
  %36 = getelementptr inbounds nuw i8, ptr %7, i64 16
  %37 = load ptr, ptr %36, align 8, !tbaa !12
  store ptr %37, ptr %1, align 8, !tbaa !61
  br label %asn1_expect_objtype.exit.thread

asn1_expect_objtype.exit.thread:                  ; preds = %6, %12, %35, %34, %32, %17
  %.0 = phi i32 [ 1, %17 ], [ 1, %34 ], [ 0, %35 ], [ 1, %32 ], [ 1, %12 ], [ 1, %6 ]
  call void @llvm.lifetime.end.p0(i64 24, ptr nonnull %7) #11
  ret i32 %.0
}